; Function Attrs: mustprogress uwtable
define noundef ptr @_ZN6icu_7712UnifiedCache11getInstanceER10UErrorCode(ptr noundef nonnull align 4 dereferenceable(4) %0) local_unnamed_addr #0 align 2 personality ptr @__gxx_personality_v0 {
  %2 = load i32, ptr %0, align 4, !tbaa !6
  %3 = icmp slt i32 %2, 1
  br i1 %3, label %4, label %_ZN6icu_7713umtx_initOnceERNS_9UInitOnceEPFvR10UErrorCodeES3_.exit

4:                                                ; preds = %1
  %5 = load atomic i32, ptr @_ZL14gCacheInitOnce acquire, align 4
  %.not11.i = icmp eq i32 %5, 2
  br i1 %.not11.i, label %23, label %6

6:                                                ; preds = %4
  %7 = tail call noundef signext i8 @_ZN6icu_7720umtx_initImplPreInitERNS_9UInitOnceE(ptr noundef nonnull align 4 dereferenceable(8) @_ZL14gCacheInitOnce)
  %.not12.i = icmp eq i8 %7, 0
  br i1 %.not12.i, label %23, label %8

8:                                                ; preds = %6
  tail call void @ucln_common_registerCleanup_77(i32 noundef 26, ptr noundef nonnull @_ZL20unifiedcache_cleanupv)
  tail call void @llvm.memset.p0.i64(ptr noundef nonnull align 8 dereferenceable(40) @"_ZZZN6icu_77L9cacheInitER10UErrorCodeENK3$_0clEvE7storage", i8 0, i64 40, i1 false)
  store ptr @"_ZZZN6icu_77L9cacheInitER10UErrorCodeENK3$_0clEvE7storage", ptr @_ZL11gCacheMutex, align 8, !tbaa !9
  tail call void @_ZNSt18condition_variableC1Ev(ptr noundef nonnull align 8 dereferenceable(48) @"_ZZZN6icu_77L9cacheInitER10UErrorCodeENK3$_1clEvE7storage") #16
  store ptr @"_ZZZN6icu_77L9cacheInitER10UErrorCodeENK3$_1clEvE7storage", ptr @_ZL25gInProgressValueAddedCond, align 8, !tbaa !12
  %9 = tail call noundef ptr @_ZN6icu_777UMemorynwEm(i64 noundef 56) #16
  %10 = icmp eq ptr %9, null
  br i1 %10, label %14, label %11

11:                                               ; preds = %8
  invoke void @_ZN6icu_7712UnifiedCacheC1ER10UErrorCode(ptr noundef nonnull align 8 dereferenceable(56) %9, ptr noundef nonnull align 4 dereferenceable(4) %0)
          to label %.thread7.i unwind label %12

12:                                               ; preds = %11
  %13 = landingpad { ptr, i32 }
          cleanup
  tail call void @_ZN6icu_777UMemorydlEPv(ptr noundef nonnull %9) #16
  resume { ptr, i32 } %13

14:                                               ; preds = %8
  store ptr null, ptr @_ZL6gCache, align 8, !tbaa !14
  store i32 7, ptr %0, align 4, !tbaa !6
  br label %21

.thread7.i:                                       ; preds = %11
  store ptr %9, ptr @_ZL6gCache, align 8, !tbaa !14
  %15 = load i32, ptr %0, align 4, !tbaa !6
  %16 = icmp slt i32 %15, 1
  br i1 %16, label %_ZN6icu_77L9cacheInitER10UErrorCode.exit, label %17

17:                                               ; preds = %.thread7.i
  %18 = load ptr, ptr %9, align 8, !tbaa !3
  %19 = getelementptr inbounds nuw i8, ptr %18, i64 8
  %20 = load ptr, ptr %19, align 8
  tail call void %20(ptr noundef nonnull align 8 dereferenceable(56) %9) #16
  %.pre.pre = load i32, ptr %0, align 4, !tbaa !6
  br label %21

21:                                               ; preds = %17, %14
  %.pre = phi i32 [ %.pre.pre, %17 ], [ 7, %14 ]
  store ptr null, ptr @_ZL6gCache, align 8, !tbaa !14
  br label %_ZN6icu_77L9cacheInitER10UErrorCode.exit

_ZN6icu_77L9cacheInitER10UErrorCode.exit:         ; preds = %.thread7.i, %21
  %22 = phi i32 [ %15, %.thread7.i ], [ %.pre, %21 ]
  store i32 %22, ptr getelementptr inbounds nuw (i8, ptr @_ZL14gCacheInitOnce, i64 4), align 4, !tbaa !16
  tail call void @_ZN6icu_7721umtx_initImplPostInitERNS_9UInitOnceE(ptr noundef nonnull align 4 dereferenceable(8) @_ZL14gCacheInitOnce)
  br label %_ZN6icu_7713umtx_initOnceERNS_9UInitOnceEPFvR10UErrorCodeES3_.exit

23:                                               ; preds = %6, %4
  %24 = load i32, ptr getelementptr inbounds nuw (i8, ptr @_ZL14gCacheInitOnce, i64 4), align 4, !tbaa !16
  %25 = icmp slt i32 %24, 1
  br i1 %25, label %_ZN6icu_7713umtx_initOnceERNS_9UInitOnceEPFvR10UErrorCodeES3_.exit, label %26

26:                                               ; preds = %23
  store i32 %24, ptr %0, align 4, !tbaa !6
  br label %_ZN6icu_7713umtx_initOnceERNS_9UInitOnceEPFvR10UErrorCodeES3_.exit

_ZN6icu_7713umtx_initOnceERNS_9UInitOnceEPFvR10UErrorCodeES3_.exit: ; preds = %1, %_ZN6icu_77L9cacheInitER10UErrorCode.exit, %23, %26
  %27 = load i32, ptr %0, align 4, !tbaa !6
  %28 = icmp slt i32 %27, 1
  %29 = load ptr, ptr @_ZL6gCache, align 8
  %.0 = select i1 %28, ptr %29, ptr null
  ret ptr %.0
}